(dp1
S'Niebla-Lluvia-Nieve'
p2
I8
sS'Nieve'
p3
I6
sS'Lluvia'
p4
I0
sS'Ninguno'
p5
I2
sS'Niebla-Lluvia'
p6
I4
sS'Lluvia-Tormenta'
p7
I1
sS'Niebla-Nieve'
p8
I7
sS'Niebla'
p9
I3
sS'Lluvia-Nieve'
p10
I5
s.